ccopy_reg
_reconstructor
p0
(ccbcpost.paramdict
ParamDict
p1
c__builtin__
dict
p2
(dp3
S'problem'
p4
g0
(g1
g2
(dp5
S'refinement_level'
p6
I2
sS'period'
p7
NsS'T0'
p8
F0.0
sS'mu'
p9
F0.01
sS'mesh_file'
p10
NsS'num_periods'
p11
NsS'T'
p12
F3.0
sS'rho'
p13
F1.0
sS'start_timestep'
p14
I0
sS'dt'
p15
F0.005
stp16
Rp17
((lp18
g12
ag8
ag15
ag10
ag9
ag11
ag7
ag13
ag14
ag6
a(lp19
(g6
I2
tp20
a(g7
Ntp21
a(g8
F0.0
tp22
a(g9
F0.01
tp23
a(g10
Ntp24
a(g11
Ntp25
a(g12
F3.0
tp26
a(g13
F1.0
tp27
a(g14
I0
tp28
a(g15
F0.005
tp29
atp30
bsS'scheme'
p31
g0
(g1
g2
(dp32
S'u_tent_solver_parameters'
p33
g0
(g1
g2
(dp34
tp35
Rp36
((lp37
(lp38
tp39
bsS'u_corr_solver_parameters'
p40
g0
(g1
g2
(dp41
tp42
Rp43
((lp44
(lp45
tp46
bsS'u_degree'
p47
I1
sS'solver_p'
p48
NsS'u_tent_prec_structure'
p49
S'same_nonzero_pattern'
p50
sS'p_corr_solver_parameters'
p51
g0
(g1
g2
(dp52
tp53
Rp54
((lp55
(lp56
tp57
bsS'p_degree'
p58
I1
sS'rebuild_prec_frequency'
p59
F1e+16
sS'theta'
p60
F0.5
sS'solver_u_tent'
p61
(S'gmres'
p62
S'hypre_euclid'
p63
tp64
sS'solver_u_corr'
p65
(S'bicgstab'
p66
g63
tp67
sS'solver_p_dirichlet'
p68
(g62
S'hypre_amg'
p69
tp70
sS'solver_p_neumann'
p71
(g62
g69
tp72
stp73
Rp74
((lp75
g58
ag48
ag68
ag71
ag65
ag61
ag47
ag33
ag40
ag49
ag51
ag59
ag60
a(lp76
(g33
g36
tp77
a(g40
g43
tp78
a(g47
I1
tp79
a(g48
Ntp80
a(g49
g50
tp81
a(g51
g54
tp82
a(g58
I1
tp83
a(g59
F1e+16
tp84
a(g60
F0.5
tp85
a(g61
g64
tp86
a(g65
g67
tp87
a(g68
g70
tp88
a(g71
g72
tp89
atp90
bsS'postprocessor'
p91
g0
(g1
g2
(dp92
S'initial_dt'
p93
F1e-05
sS'clean_casedir'
p94
I00
sS'extrapolate'
p95
I01
sS'casedir'
p96
S'results_demo_FlowAroundCylinder_IPCS_Stable'
p97
sS'enable_timer'
p98
I00
stp99
Rp100
((lp101
g96
ag94
ag98
ag95
ag93
a(lp102
(g93
F1e-05
tp103
a(g94
I00
tp104
a(g95
I01
tp105
a(g96
g97
tp106
a(g98
I00
tp107
atp108
bsS'solver'
p109
g0
(g1
g2
(dp110
S'restart_time'
p111
F-1.0
sS'enable_annotation'
p112
I00
sS'timer_frequency'
p113
I0
sS'restart_timestep'
p114
I-1
sS'restart'
p115
I00
sS'check_memory_frequency'
p116
I0
stp117
Rp118
((lp119
g116
ag112
ag115
ag111
ag114
ag113
a(lp120
(g113
I0
tp121
a(g116
I0
tp122
a(g111
F-1.0
tp123
a(g112
I00
tp124
a(g114
I-1
tp125
a(g115
I00
tp126
atp127
bstp128
Rp129
((lp130
g91
ag4
ag31
ag109
a(lp131
(g4
g17
tp132
a(g31
g74
tp133
a(g109
g118
tp134
a(g91
g100
tp135
atp136
b.